target datalayout = "e-m:e-p270:32:32-p271:32:32-p272:64:64-i64:64-i128:128-f80:128-n8:16:32:64-S128"
target triple = "x86_64-pc-linux-gnu"

%struct.SDL_BlitInfo = type { ptr, ptr, i32, i32, i32, i32, ptr, ptr, i32, i32, i32, i32, ptr, ptr, ptr, ptr, ptr, ptr, i32, i32, i8, i8, i8, i8 }

; Function Attrs: nounwind uwtable
define internal void @SDL_Blit_ARGB8888_ABGR8888_Modulate(ptr noundef %0) #0 {
  %2 = alloca ptr, align 8
  %3 = alloca i32, align 4
  %4 = alloca i32, align 4
  %5 = alloca i32, align 4
  %6 = alloca i32, align 4
  %7 = alloca i32, align 4
  %8 = alloca i32, align 4
  %9 = alloca i32, align 4
  %10 = alloca i32, align 4
  %11 = alloca i32, align 4
  %12 = alloca i32, align 4
  %13 = alloca ptr, align 8
  %14 = alloca ptr, align 8
  %15 = alloca i32, align 4
  %16 = alloca i16, align 2
  %17 = alloca i16, align 2
  %18 = alloca i16, align 2
  %19 = alloca i16, align 2
  store ptr %0, ptr %2, align 8
  call void @llvm.lifetime.start.p0(i64 4, ptr %3) #2
  %20 = load ptr, ptr %2, align 8
  %21 = getelementptr inbounds nuw %struct.SDL_BlitInfo, ptr %20, i32 0, i32 18
  %22 = load i32, ptr %21, align 8
  store i32 %22, ptr %3, align 4
  call void @llvm.lifetime.start.p0(i64 4, ptr %4) #2
  %23 = load ptr, ptr %2, align 8
  %24 = getelementptr inbounds nuw %struct.SDL_BlitInfo, ptr %23, i32 0, i32 20
  %25 = load i8, ptr %24, align 8
  %26 = zext i8 %25 to i32
  store i32 %26, ptr %4, align 4
  call void @llvm.lifetime.start.p0(i64 4, ptr %5) #2
  %27 = load ptr, ptr %2, align 8
  %28 = getelementptr inbounds nuw %struct.SDL_BlitInfo, ptr %27, i32 0, i32 21
  %29 = load i8, ptr %28, align 1
  %30 = zext i8 %29 to i32
  store i32 %30, ptr %5, align 4
  call void @llvm.lifetime.start.p0(i64 4, ptr %6) #2
  %31 = load ptr, ptr %2, align 8
  %32 = getelementptr inbounds nuw %struct.SDL_BlitInfo, ptr %31, i32 0, i32 22
  %33 = load i8, ptr %32, align 2
  %34 = zext i8 %33 to i32
  store i32 %34, ptr %6, align 4
  call void @llvm.lifetime.start.p0(i64 4, ptr %7) #2
  %35 = load ptr, ptr %2, align 8
  %36 = getelementptr inbounds nuw %struct.SDL_BlitInfo, ptr %35, i32 0, i32 23
  %37 = load i8, ptr %36, align 1
  %38 = zext i8 %37 to i32
  store i32 %38, ptr %7, align 4
  call void @llvm.lifetime.start.p0(i64 4, ptr %8) #2
  call void @llvm.lifetime.start.p0(i64 4, ptr %9) #2
  call void @llvm.lifetime.start.p0(i64 4, ptr %10) #2
  call void @llvm.lifetime.start.p0(i64 4, ptr %11) #2
  call void @llvm.lifetime.start.p0(i64 4, ptr %12) #2
  br label %39

39:                                               ; preds = %187, %1
  %40 = load ptr, ptr %2, align 8
  %41 = getelementptr inbounds nuw %struct.SDL_BlitInfo, ptr %40, i32 0, i32 9
  %42 = load i32, ptr %41, align 4
  %43 = add nsw i32 %42, -1
  store i32 %43, ptr %41, align 4
  %44 = icmp ne i32 %42, 0
  br i1 %44, label %45, label %204

45:                                               ; preds = %39
  call void @llvm.lifetime.start.p0(i64 8, ptr %13) #2
  %46 = load ptr, ptr %2, align 8
  %47 = getelementptr inbounds nuw %struct.SDL_BlitInfo, ptr %46, i32 0, i32 1
  %48 = load ptr, ptr %47, align 8
  store ptr %48, ptr %13, align 8
  call void @llvm.lifetime.start.p0(i64 8, ptr %14) #2
  %49 = load ptr, ptr %2, align 8
  %50 = getelementptr inbounds nuw %struct.SDL_BlitInfo, ptr %49, i32 0, i32 7
  %51 = load ptr, ptr %50, align 8
  store ptr %51, ptr %14, align 8
  call void @llvm.lifetime.start.p0(i64 4, ptr %15) #2
  %52 = load ptr, ptr %2, align 8
  %53 = getelementptr inbounds nuw %struct.SDL_BlitInfo, ptr %52, i32 0, i32 8
  %54 = load i32, ptr %53, align 8
  store i32 %54, ptr %15, align 4
  br label %55

55:                                               ; preds = %170, %45
  %56 = load i32, ptr %15, align 4
  %57 = add nsw i32 %56, -1
  store i32 %57, ptr %15, align 4
  %58 = icmp ne i32 %56, 0
  br i1 %58, label %59, label %187

59:                                               ; preds = %55
  %60 = load ptr, ptr %13, align 8
  %61 = load i32, ptr %60, align 4
  store i32 %61, ptr %8, align 4
  %62 = load i32, ptr %8, align 4
  %63 = lshr i32 %62, 16
  %64 = trunc i32 %63 to i8
  %65 = zext i8 %64 to i32
  store i32 %65, ptr %9, align 4
  %66 = load i32, ptr %8, align 4
  %67 = lshr i32 %66, 8
  %68 = trunc i32 %67 to i8
  %69 = zext i8 %68 to i32
  store i32 %69, ptr %10, align 4
  %70 = load i32, ptr %8, align 4
  %71 = trunc i32 %70 to i8
  %72 = zext i8 %71 to i32
  store i32 %72, ptr %11, align 4
  %73 = load i32, ptr %8, align 4
  %74 = lshr i32 %73, 24
  %75 = trunc i32 %74 to i8
  %76 = zext i8 %75 to i32
  store i32 %76, ptr %12, align 4
  %77 = load i32, ptr %3, align 4
  %78 = and i32 %77, 1
  %79 = icmp ne i32 %78, 0
  br i1 %79, label %80, label %144

80:                                               ; preds = %59
  br label %81

81:                                               ; preds = %80
  call void @llvm.lifetime.start.p0(i64 2, ptr %16) #2
  %82 = load i32, ptr %9, align 4
  %83 = load i32, ptr %4, align 4
  %84 = mul i32 %82, %83
  %85 = trunc i32 %84 to i16
  store i16 %85, ptr %16, align 2
  %86 = load i16, ptr %16, align 2
  %87 = zext i16 %86 to i32
  %88 = add i32 %87, 1
  %89 = trunc i32 %88 to i16
  store i16 %89, ptr %16, align 2
  %90 = load i16, ptr %16, align 2
  %91 = zext i16 %90 to i32
  %92 = ashr i32 %91, 8
  %93 = load i16, ptr %16, align 2
  %94 = zext i16 %93 to i32
  %95 = add nsw i32 %94, %92
  %96 = trunc i32 %95 to i16
  store i16 %96, ptr %16, align 2
  %97 = load i16, ptr %16, align 2
  %98 = zext i16 %97 to i32
  %99 = ashr i32 %98, 8
  store i32 %99, ptr %9, align 4
  call void @llvm.lifetime.end.p0(i64 2, ptr %16) #2
  br label %100

100:                                              ; preds = %81
  br label %101

101:                                              ; preds = %100
  br label %102

102:                                              ; preds = %101
  call void @llvm.lifetime.start.p0(i64 2, ptr %17) #2
  %103 = load i32, ptr %10, align 4
  %104 = load i32, ptr %5, align 4
  %105 = mul i32 %103, %104
  %106 = trunc i32 %105 to i16
  store i16 %106, ptr %17, align 2
  %107 = load i16, ptr %17, align 2
  %108 = zext i16 %107 to i32
  %109 = add i32 %108, 1
  %110 = trunc i32 %109 to i16
  store i16 %110, ptr %17, align 2
  %111 = load i16, ptr %17, align 2
  %112 = zext i16 %111 to i32
  %113 = ashr i32 %112, 8
  %114 = load i16, ptr %17, align 2
  %115 = zext i16 %114 to i32
  %116 = add nsw i32 %115, %113
  %117 = trunc i32 %116 to i16
  store i16 %117, ptr %17, align 2
  %118 = load i16, ptr %17, align 2
  %119 = zext i16 %118 to i32
  %120 = ashr i32 %119, 8
  store i32 %120, ptr %10, align 4
  call void @llvm.lifetime.end.p0(i64 2, ptr %17) #2
  br label %121

121:                                              ; preds = %102
  br label %122

122:                                              ; preds = %121
  br label %123

123:                                              ; preds = %122
  call void @llvm.lifetime.start.p0(i64 2, ptr %18) #2
  %124 = load i32, ptr %11, align 4
  %125 = load i32, ptr %6, align 4
  %126 = mul i32 %124, %125
  %127 = trunc i32 %126 to i16
  store i16 %127, ptr %18, align 2
  %128 = load i16, ptr %18, align 2
  %129 = zext i16 %128 to i32
  %130 = add i32 %129, 1
  %131 = trunc i32 %130 to i16
  store i16 %131, ptr %18, align 2
  %132 = load i16, ptr %18, align 2
  %133 = zext i16 %132 to i32
  %134 = ashr i32 %133, 8
  %135 = load i16, ptr %18, align 2
  %136 = zext i16 %135 to i32
  %137 = add nsw i32 %136, %134
  %138 = trunc i32 %137 to i16
  store i16 %138, ptr %18, align 2
  %139 = load i16, ptr %18, align 2
  %140 = zext i16 %139 to i32
  %141 = ashr i32 %140, 8
  store i32 %141, ptr %11, align 4
  call void @llvm.lifetime.end.p0(i64 2, ptr %18) #2
  br label %142

142:                                              ; preds = %123
  br label %143

143:                                              ; preds = %142
  br label %144

144:                                              ; preds = %143, %59
  %145 = load i32, ptr %3, align 4
  %146 = and i32 %145, 2
  %147 = icmp ne i32 %146, 0
  br i1 %147, label %148, label %170

148:                                              ; preds = %144
  br label %149

149:                                              ; preds = %148
  call void @llvm.lifetime.start.p0(i64 2, ptr %19) #2
  %150 = load i32, ptr %12, align 4
  %151 = load i32, ptr %7, align 4
  %152 = mul i32 %150, %151
  %153 = trunc i32 %152 to i16
  store i16 %153, ptr %19, align 2
  %154 = load i16, ptr %19, align 2
  %155 = zext i16 %154 to i32
  %156 = add i32 %155, 1
  %157 = trunc i32 %156 to i16
  store i16 %157, ptr %19, align 2
  %158 = load i16, ptr %19, align 2
  %159 = zext i16 %158 to i32
  %160 = ashr i32 %159, 8
  %161 = load i16, ptr %19, align 2
  %162 = zext i16 %161 to i32
  %163 = add nsw i32 %162, %160
  %164 = trunc i32 %163 to i16
  store i16 %164, ptr %19, align 2
  %165 = load i16, ptr %19, align 2
  %166 = zext i16 %165 to i32
  %167 = ashr i32 %166, 8
  store i32 %167, ptr %12, align 4
  call void @llvm.lifetime.end.p0(i64 2, ptr %19) #2
  br label %168

168:                                              ; preds = %149
  br label %169

169:                                              ; preds = %168
  br label %170

170:                                              ; preds = %169, %144
  %171 = load i32, ptr %12, align 4
  %172 = shl i32 %171, 24
  %173 = load i32, ptr %11, align 4
  %174 = shl i32 %173, 16
  %175 = or i32 %172, %174
  %176 = load i32, ptr %10, align 4
  %177 = shl i32 %176, 8
  %178 = or i32 %175, %177
  %179 = load i32, ptr %9, align 4
  %180 = or i32 %178, %179
  store i32 %180, ptr %8, align 4
  %181 = load i32, ptr %8, align 4
  %182 = load ptr, ptr %14, align 8
  store i32 %181, ptr %182, align 4
  %183 = load ptr, ptr %13, align 8
  %184 = getelementptr inbounds nuw i32, ptr %183, i32 1
  store ptr %184, ptr %13, align 8
  %185 = load ptr, ptr %14, align 8
  %186 = getelementptr inbounds nuw i32, ptr %185, i32 1
  store ptr %186, ptr %14, align 8
  br label %55, !llvm.loop !164

187:                                              ; preds = %55
  %188 = load ptr, ptr %2, align 8
  %189 = getelementptr inbounds nuw %struct.SDL_BlitInfo, ptr %188, i32 0, i32 4
  %190 = load i32, ptr %189, align 8
  %191 = load ptr, ptr %2, align 8
  %192 = getelementptr inbounds nuw %struct.SDL_BlitInfo, ptr %191, i32 0, i32 1
  %193 = load ptr, ptr %192, align 8
  %194 = sext i32 %190 to i64
  %195 = getelementptr inbounds i8, ptr %193, i64 %194
  store ptr %195, ptr %192, align 8
  %196 = load ptr, ptr %2, align 8
  %197 = getelementptr inbounds nuw %struct.SDL_BlitInfo, ptr %196, i32 0, i32 10
  %198 = load i32, ptr %197, align 8
  %199 = load ptr, ptr %2, align 8
  %200 = getelementptr inbounds nuw %struct.SDL_BlitInfo, ptr %199, i32 0, i32 7
  %201 = load ptr, ptr %200, align 8
  %202 = sext i32 %198 to i64
  %203 = getelementptr inbounds i8, ptr %201, i64 %202
  store ptr %203, ptr %200, align 8
  call void @llvm.lifetime.end.p0(i64 4, ptr %15) #2
  call void @llvm.lifetime.end.p0(i64 8, ptr %14) #2
  call void @llvm.lifetime.end.p0(i64 8, ptr %13) #2
  br label %39, !llvm.loop !165

204:                                              ; preds = %39
  call void @llvm.lifetime.end.p0(i64 4, ptr %12) #2
  call void @llvm.lifetime.end.p0(i64 4, ptr %11) #2
  call void @llvm.lifetime.end.p0(i64 4, ptr %10) #2
  call void @llvm.lifetime.end.p0(i64 4, ptr %9) #2
  call void @llvm.lifetime.end.p0(i64 4, ptr %8) #2
  call void @llvm.lifetime.end.p0(i64 4, ptr %7) #2
  call void @llvm.lifetime.end.p0(i64 4, ptr %6) #2
  call void @llvm.lifetime.end.p0(i64 4, ptr %5) #2
  call void @llvm.lifetime.end.p0(i64 4, ptr %4) #2
  call void @llvm.lifetime.end.p0(i64 4, ptr %3) #2
  ret void
}