; Function Attrs: nofree norecurse nosync nounwind memory(readwrite, inaccessiblemem: none) uwtable
define internal void @SDL_Blit_ARGB8888_ABGR8888_Modulate(ptr noundef captures(none) %0) #0 {
  %2 = getelementptr inbounds nuw i8, ptr %0, i64 112
  %3 = load i32, ptr %2, align 8
  %4 = getelementptr inbounds nuw i8, ptr %0, i64 120
  %5 = load i8, ptr %4, align 8
  %6 = zext i8 %5 to i32
  %7 = getelementptr inbounds nuw i8, ptr %0, i64 121
  %8 = load i8, ptr %7, align 1
  %9 = zext i8 %8 to i32
  %10 = getelementptr inbounds nuw i8, ptr %0, i64 122
  %11 = load i8, ptr %10, align 2
  %12 = zext i8 %11 to i32
  %13 = getelementptr inbounds nuw i8, ptr %0, i64 123
  %14 = load i8, ptr %13, align 1
  %15 = zext i8 %14 to i32
  %16 = getelementptr inbounds nuw i8, ptr %0, i64 52
  %17 = load i32, ptr %16, align 4
  %18 = add nsw i32 %17, -1
  store i32 %18, ptr %16, align 4
  %.not64 = icmp eq i32 %17, 0
  br i1 %.not64, label %._crit_edge67, label %.lr.ph66

.lr.ph66:                                         ; preds = %1
  %19 = getelementptr inbounds nuw i8, ptr %0, i64 8
  %20 = getelementptr inbounds nuw i8, ptr %0, i64 40
  %21 = getelementptr inbounds nuw i8, ptr %0, i64 48
  %22 = and i32 %3, 1
  %.not59 = icmp eq i32 %22, 0
  %23 = and i32 %3, 2
  %.not60 = icmp eq i32 %23, 0
  %24 = getelementptr inbounds nuw i8, ptr %0, i64 24
  %25 = getelementptr inbounds nuw i8, ptr %0, i64 56
  %26 = load i32, ptr %21, align 8
  %27 = icmp eq i32 %26, 0
  br i1 %27, label %.lr.ph66.split.us, label %.lr.ph66.split.preheader

.lr.ph66.split.preheader:                         ; preds = %.lr.ph66
  %.pre = load ptr, ptr %19, align 8
  %.pre77 = load ptr, ptr %20, align 8
  br label %.lr.ph66.split

.lr.ph66.split.us:                                ; preds = %.lr.ph66
  %28 = load i32, ptr %24, align 8
  %29 = sext i32 %28 to i64
  %30 = load i32, ptr %25, align 8
  %31 = sext i32 %30 to i64
  %.promoted = load ptr, ptr %19, align 8
  %.promoted68 = load ptr, ptr %20, align 8
  %32 = zext i32 %17 to i64
  %33 = mul nsw i64 %32, %29
  %scevgep = getelementptr i8, ptr %.promoted, i64 %33
  %34 = mul nsw i64 %32, %31
  %scevgep76 = getelementptr i8, ptr %.promoted68, i64 %34
  store ptr %scevgep, ptr %19, align 8
  store ptr %scevgep76, ptr %20, align 8
  store i32 -1, ptr %16, align 4
  br label %._crit_edge67

.lr.ph66.splitthread-pre-split:                   ; preds = %._crit_edge
  %.pr = load i32, ptr %21, align 8
  br label %.lr.ph66.split

.lr.ph66.split:                                   ; preds = %.lr.ph66.splitthread-pre-split, %.lr.ph66.split.preheader
  %35 = phi i32 [ %.pr, %.lr.ph66.splitthread-pre-split ], [ %26, %.lr.ph66.split.preheader ]
  %36 = phi ptr [ %121, %.lr.ph66.splitthread-pre-split ], [ %.pre77, %.lr.ph66.split.preheader ]
  %37 = phi ptr [ %117, %.lr.ph66.splitthread-pre-split ], [ %.pre, %.lr.ph66.split.preheader ]
  %38 = add nsw i32 %35, -1
  %.not5861 = icmp eq i32 %35, 0
  br i1 %.not5861, label %._crit_edge, label %.lr.ph

.lr.ph:                                           ; preds = %.lr.ph66.split
  br i1 %.not59, label %.lr.ph.split.us, label %.lr.ph.split

.lr.ph.split.us:                                  ; preds = %.lr.ph
  br i1 %.not60, label %.lr.ph.split.us.split.us, label %.lr.ph.split.us.split

.lr.ph.split.us.split.us:                         ; preds = %.lr.ph.split.us, %.lr.ph.split.us.split.us
  %39 = phi i32 [ %50, %.lr.ph.split.us.split.us ], [ %38, %.lr.ph.split.us ]
  %.05563.us.us = phi ptr [ %49, %.lr.ph.split.us.split.us ], [ %36, %.lr.ph.split.us ]
  %.05662.us.us = phi ptr [ %48, %.lr.ph.split.us.split.us ], [ %37, %.lr.ph.split.us ]
  %40 = load i32, ptr %.05662.us.us, align 4
  %41 = lshr i32 %40, 16
  %42 = and i32 %41, 255
  %43 = shl i32 %40, 16
  %44 = and i32 %43, 16711680
  %45 = and i32 %40, -16711936
  %46 = or disjoint i32 %45, %44
  %47 = or disjoint i32 %46, %42
  store i32 %47, ptr %.05563.us.us, align 4
  %48 = getelementptr inbounds nuw i8, ptr %.05662.us.us, i64 4
  %49 = getelementptr inbounds nuw i8, ptr %.05563.us.us, i64 4
  %50 = add nsw i32 %39, -1
  %.not58.us.us = icmp eq i32 %39, 0
  br i1 %.not58.us.us, label %._crit_edge, label %.lr.ph.split.us.split.us, !llvm.loop !165

.lr.ph.split.us.split:                            ; preds = %.lr.ph.split.us, %.lr.ph.split.us.split
  %51 = phi i32 [ %71, %.lr.ph.split.us.split ], [ %38, %.lr.ph.split.us ]
  %.05563.us = phi ptr [ %70, %.lr.ph.split.us.split ], [ %36, %.lr.ph.split.us ]
  %.05662.us = phi ptr [ %69, %.lr.ph.split.us.split ], [ %37, %.lr.ph.split.us ]
  %52 = load i32, ptr %.05662.us, align 4
  %53 = lshr i32 %52, 16
  %54 = and i32 %53, 255
  %55 = and i32 %52, 65280
  %56 = lshr i32 %52, 24
  %57 = mul nuw nsw i32 %56, %15
  %58 = add nuw nsw i32 %57, 1
  %59 = lshr i32 %58, 8
  %60 = and i32 %59, 255
  %61 = add nuw nsw i32 %60, %58
  %62 = shl nuw i32 %61, 16
  %63 = and i32 %62, -16777216
  %64 = shl i32 %52, 16
  %65 = and i32 %64, 16711680
  %66 = or disjoint i32 %63, %65
  %67 = or disjoint i32 %66, %55
  %68 = or disjoint i32 %67, %54
  store i32 %68, ptr %.05563.us, align 4
  %69 = getelementptr inbounds nuw i8, ptr %.05662.us, i64 4
  %70 = getelementptr inbounds nuw i8, ptr %.05563.us, i64 4
  %71 = add nsw i32 %51, -1
  %.not58.us = icmp eq i32 %51, 0
  br i1 %.not58.us, label %._crit_edge, label %.lr.ph.split.us.split, !llvm.loop !165

.lr.ph.split:                                     ; preds = %.lr.ph, %103
  %72 = phi i32 [ %113, %103 ], [ %38, %.lr.ph ]
  %.05563 = phi ptr [ %112, %103 ], [ %36, %.lr.ph ]
  %.05662 = phi ptr [ %111, %103 ], [ %37, %.lr.ph ]
  %73 = load i32, ptr %.05662, align 4
  %74 = lshr i32 %73, 16
  %75 = and i32 %74, 255
  %76 = lshr i32 %73, 8
  %77 = and i32 %76, 255
  %78 = and i32 %73, 255
  %79 = lshr i32 %73, 24
  %80 = mul nuw nsw i32 %75, %6
  %81 = add nuw nsw i32 %80, 1
  %82 = lshr i32 %81, 8
  %83 = and i32 %82, 255
  %84 = add nuw nsw i32 %83, %81
  %85 = lshr i32 %84, 8
  %86 = and i32 %85, 255
  %87 = mul nuw nsw i32 %77, %9
  %88 = add nuw nsw i32 %87, 1
  %89 = lshr i32 %88, 8
  %90 = and i32 %89, 255
  %91 = add nuw nsw i32 %90, %88
  %92 = and i32 %91, 65280
  %93 = mul nuw nsw i32 %78, %12
  %94 = add nuw nsw i32 %93, 1
  br i1 %.not60, label %103, label %95

95:                                               ; preds = %.lr.ph.split
  %96 = mul nuw nsw i32 %79, %15
  %97 = add nuw nsw i32 %96, 1
  %98 = lshr i32 %97, 8
  %99 = and i32 %98, 255
  %100 = add nuw nsw i32 %99, %97
  %101 = lshr i32 %100, 8
  %102 = and i32 %101, 255
  br label %103

103:                                              ; preds = %95, %.lr.ph.split
  %.057 = phi i32 [ %102, %95 ], [ %79, %.lr.ph.split ]
  %104 = shl nuw i32 %.057, 24
  %105 = shl nuw nsw i32 %94, 8
  %.mask = and i32 %94, 65280
  %106 = add nuw nsw i32 %.mask, %105
  %107 = and i32 %106, 16711680
  %108 = or disjoint i32 %104, %107
  %109 = or disjoint i32 %108, %92
  %110 = or disjoint i32 %109, %86
  store i32 %110, ptr %.05563, align 4
  %111 = getelementptr inbounds nuw i8, ptr %.05662, i64 4
  %112 = getelementptr inbounds nuw i8, ptr %.05563, i64 4
  %113 = add nsw i32 %72, -1
  %.not58 = icmp eq i32 %72, 0
  br i1 %.not58, label %._crit_edge, label %.lr.ph.split, !llvm.loop !165

._crit_edge:                                      ; preds = %103, %.lr.ph.split.us.split, %.lr.ph.split.us.split.us, %.lr.ph66.split
  %114 = load i32, ptr %24, align 8
  %115 = load ptr, ptr %19, align 8
  %116 = sext i32 %114 to i64
  %117 = getelementptr inbounds i8, ptr %115, i64 %116
  store ptr %117, ptr %19, align 8
  %118 = load i32, ptr %25, align 8
  %119 = load ptr, ptr %20, align 8
  %120 = sext i32 %118 to i64
  %121 = getelementptr inbounds i8, ptr %119, i64 %120
  store ptr %121, ptr %20, align 8
  %122 = load i32, ptr %16, align 4
  %123 = add nsw i32 %122, -1
  store i32 %123, ptr %16, align 4
  %.not = icmp eq i32 %122, 0
  br i1 %.not, label %._crit_edge67, label %.lr.ph66.splitthread-pre-split, !llvm.loop !166

._crit_edge67:                                    ; preds = %._crit_edge, %.lr.ph66.split.us, %1
  ret void
}